target datalayout = "e-m:e-p270:32:32-p271:32:32-p272:64:64-i64:64-i128:128-f80:128-n8:16:32:64-S128"
target triple = "x86_64-pc-linux-gnu"

%class.AbsSeq = type { ptr, i32, double, double, double, double, double }
%class.G1IHOPControl = type { ptr, double, i64, double, ptr }
%class.G1AdaptiveIHOPControl = type { %class.G1IHOPControl, i64, i64, ptr, %class.TruncatedSeq, %class.TruncatedSeq, i64 }
%class.TruncatedSeq = type { %class.AbsSeq, ptr, i32, i32 }

; Function Attrs: mustprogress nounwind uwtable
define hidden void @_ZN13G1IHOPControlC2EdPK25G1OldGenAllocationTracker(ptr noundef nonnull align 8 dereferenceable(40) %0, double noundef %1, ptr noundef %2) unnamed_addr #1 align 2 {
  %4 = alloca ptr, align 8
  %5 = alloca double, align 8
  %6 = alloca ptr, align 8
  store ptr %0, ptr %4, align 8
  store double %1, ptr %5, align 8
  store ptr %2, ptr %6, align 8
  %7 = load ptr, ptr %4, align 8
  store ptr getelementptr inbounds inrange(-16, 72) ({ [11 x ptr] }, ptr @_ZTV13G1IHOPControl, i32 0, i32 0, i32 2), ptr %7, align 8
  %8 = getelementptr inbounds %class.G1IHOPControl, ptr %7, i32 0, i32 1
  %9 = load double, ptr %5, align 8
  store double %9, ptr %8, align 8
  %10 = getelementptr inbounds %class.G1IHOPControl, ptr %7, i32 0, i32 2
  store i64 0, ptr %10, align 8
  %11 = getelementptr inbounds %class.G1IHOPControl, ptr %7, i32 0, i32 3
  store double 0.000000e+00, ptr %11, align 8
  %12 = getelementptr inbounds %class.G1IHOPControl, ptr %7, i32 0, i32 4
  %13 = load ptr, ptr %6, align 8
  store ptr %13, ptr %12, align 8
  ret void
}

; Function Attrs: mustprogress nounwind uwtable
define hidden void @_ZN21G1AdaptiveIHOPControlC2EdPK25G1OldGenAllocationTrackerPK13G1Predictionsmm(ptr noundef nonnull align 8 dereferenceable(216) %0, double noundef %1, ptr noundef %2, ptr noundef %3, i64 noundef %4, i64 noundef %5) unnamed_addr #1 align 2 {
  %7 = alloca ptr, align 8
  %8 = alloca double, align 8
  %9 = alloca ptr, align 8
  %10 = alloca ptr, align 8
  %11 = alloca i64, align 8
  %12 = alloca i64, align 8
  store ptr %0, ptr %7, align 8
  store double %1, ptr %8, align 8
  store ptr %2, ptr %9, align 8
  store ptr %3, ptr %10, align 8
  store i64 %4, ptr %11, align 8
  store i64 %5, ptr %12, align 8
  %13 = load ptr, ptr %7, align 8
  %14 = load double, ptr %8, align 8
  %15 = load ptr, ptr %9, align 8
  call void @_ZN13G1IHOPControlC2EdPK25G1OldGenAllocationTracker(ptr noundef nonnull align 8 dereferenceable(40) %13, double noundef %14, ptr noundef %15)
  store ptr getelementptr inbounds inrange(-16, 72) ({ [11 x ptr] }, ptr @_ZTV21G1AdaptiveIHOPControl, i32 0, i32 0, i32 2), ptr %13, align 8
  %16 = getelementptr inbounds %class.G1AdaptiveIHOPControl, ptr %13, i32 0, i32 1
  %17 = load i64, ptr %11, align 8
  store i64 %17, ptr %16, align 8
  %18 = getelementptr inbounds %class.G1AdaptiveIHOPControl, ptr %13, i32 0, i32 2
  %19 = load i64, ptr %12, align 8
  store i64 %19, ptr %18, align 8
  %20 = getelementptr inbounds %class.G1AdaptiveIHOPControl, ptr %13, i32 0, i32 3
  %21 = load ptr, ptr %10, align 8
  store ptr %21, ptr %20, align 8
  %22 = getelementptr inbounds %class.G1AdaptiveIHOPControl, ptr %13, i32 0, i32 4
  call void @_ZN12TruncatedSeqC1Eid(ptr noundef nonnull align 8 dereferenceable(72) %22, i32 noundef 10, double noundef 5.000000e-02)
  %23 = getelementptr inbounds %class.G1AdaptiveIHOPControl, ptr %13, i32 0, i32 5
  call void @_ZN12TruncatedSeqC1Eid(ptr noundef nonnull align 8 dereferenceable(72) %23, i32 noundef 10, double noundef 5.000000e-02)
  %24 = getelementptr inbounds %class.G1AdaptiveIHOPControl, ptr %13, i32 0, i32 6
  store i64 0, ptr %24, align 8
  ret void
}