; Function Attrs: mustprogress nounwind uwtable
define hidden void @_ZN21G1AdaptiveIHOPControlC2EdPK25G1OldGenAllocationTrackerPK13G1Predictionsmm(ptr noundef nonnull align 8 dereferenceable(216) %0, double noundef %1, ptr noundef %2, ptr noundef %3, i64 noundef %4, i64 noundef %5) unnamed_addr #1 align 2 {
  %7 = getelementptr inbounds i8, ptr %0, i64 8
  store double %1, ptr %7, align 8
  %8 = getelementptr inbounds i8, ptr %0, i64 16
  %9 = getelementptr inbounds i8, ptr %0, i64 32
  tail call void @llvm.memset.p0.i64(ptr noundef nonnull align 8 dereferenceable(16) %8, i8 0, i64 16, i1 false)
  store ptr %2, ptr %9, align 8
  store ptr getelementptr inbounds inrange(-16, 72) (i8, ptr @_ZTV21G1AdaptiveIHOPControl, i64 16), ptr %0, align 8
  %10 = getelementptr inbounds i8, ptr %0, i64 40
  store i64 %4, ptr %10, align 8
  %11 = getelementptr inbounds i8, ptr %0, i64 48
  store i64 %5, ptr %11, align 8
  %12 = getelementptr inbounds i8, ptr %0, i64 56
  store ptr %3, ptr %12, align 8
  %13 = getelementptr inbounds i8, ptr %0, i64 64
  tail call void @_ZN12TruncatedSeqC1Eid(ptr noundef nonnull align 8 dereferenceable(72) %13, i32 noundef 10, double noundef 5.000000e-02) #14
  %14 = getelementptr inbounds i8, ptr %0, i64 136
  tail call void @_ZN12TruncatedSeqC1Eid(ptr noundef nonnull align 8 dereferenceable(72) %14, i32 noundef 10, double noundef 5.000000e-02) #14
  %15 = getelementptr inbounds i8, ptr %0, i64 208
  store i64 0, ptr %15, align 8
  ret void
}